target datalayout = "e-m:e-p270:32:32-p271:32:32-p272:64:64-i64:64-i128:128-f80:128-n8:16:32:64-S128"
target triple = "x86_64-pc-linux-gnu"

@allocation_interrupted = internal global i8 0, align 1
@my_job_id = internal global i32 0, align 4

; Function Attrs: nounwind uwtable
define internal void @_signal_while_allocating(i32 noundef %0) #0 {
  %2 = alloca i32, align 4
  store i32 %0, ptr %2, align 4
  store i8 1, ptr @allocation_interrupted, align 1
  %3 = load i32, ptr @my_job_id, align 4
  %4 = icmp ne i32 %3, 0
  br i1 %4, label %5, label %10

5:                                                ; preds = %1
  %6 = load i32, ptr @my_job_id, align 4
  %7 = load i32, ptr %2, align 4
  %8 = add nsw i32 128, %7
  %9 = call i32 @slurm_complete_job(i32 noundef %6, i32 noundef %8)
  br label %10

10:                                               ; preds = %5, %1
  ret void
}