; Function Attrs: nounwind uwtable
define internal void @_signal_while_allocating(i32 noundef %0) #0 {
  store i1 true, ptr @allocation_interrupted, align 1
  %2 = load i32, ptr @my_job_id, align 4
  %.not = icmp eq i32 %2, 0
  br i1 %.not, label %6, label %3

3:                                                ; preds = %1
  %4 = add nsw i32 %0, 128
  %5 = tail call i32 @slurm_complete_job(i32 noundef %2, i32 noundef %4) #13
  br label %6

6:                                                ; preds = %3, %1
  ret void
}